; Function Attrs: mustprogress uwtable
define void @_ZN7xgboost32FeatureInteractionConstraintHost9ConfigureERKNS_4tree10TrainParamEj(ptr noundef nonnull align 8 dereferenceable(109) initializes((108, 109)) %0, ptr noundef nonnull align 8 dereferenceable(144) %1, i32 noundef %2) local_unnamed_addr #3 align 2 {
  %4 = getelementptr inbounds nuw i8, ptr %1, i64 112
  %5 = load i64, ptr %4, align 8, !tbaa !3
  %6 = icmp eq i64 %5, 0
  br i1 %6, label %7, label %9

7:                                                ; preds = %3
  %8 = getelementptr inbounds nuw i8, ptr %0, i64 108
  store i8 0, ptr %8, align 4, !tbaa !11
  br label %14

9:                                                ; preds = %3
  %10 = getelementptr inbounds nuw i8, ptr %1, i64 104
  %11 = getelementptr inbounds nuw i8, ptr %0, i64 108
  store i8 1, ptr %11, align 4, !tbaa !11
  %12 = getelementptr inbounds nuw i8, ptr %0, i64 72
  tail call void @_ZNSt7__cxx1112basic_stringIcSt11char_traitsIcESaIcEE9_M_assignERKS4_(ptr noundef nonnull align 8 dereferenceable(32) %12, ptr noundef nonnull align 8 dereferenceable(32) %10)
  %13 = getelementptr inbounds nuw i8, ptr %0, i64 104
  store i32 %2, ptr %13, align 8, !tbaa !20
  tail call void @_ZN7xgboost32FeatureInteractionConstraintHost5ResetEv(ptr noundef nonnull align 8 dereferenceable(109) %0)
  br label %14

14:                                               ; preds = %9, %7
  ret void
}